; Function Attrs: mustprogress uwtable
define dso_local void @_ZN7msdfgen7Contour7addEdgeEONS_10EdgeHolderE(ptr noundef nonnull align 8 dereferenceable(24) %this, ptr noundef nonnull align 8 dereferenceable(8) %edge) local_unnamed_addr #0 align 2 {
entry:
  %_M_finish.i.i = getelementptr inbounds nuw i8, ptr %this, i64 8
  %0 = load ptr, ptr %_M_finish.i.i, align 8
  %_M_end_of_storage.i.i = getelementptr inbounds nuw i8, ptr %this, i64 16
  %1 = load ptr, ptr %_M_end_of_storage.i.i, align 8
  %cmp.not.i.i = icmp eq ptr %0, %1
  br i1 %cmp.not.i.i, label %if.else.i.i, label %if.then.i.i

if.then.i.i:                                      ; preds = %entry
  tail call void @_ZN7msdfgen10EdgeHolderC1EOS0_(ptr noundef nonnull align 8 dereferenceable(8) %0, ptr noundef nonnull align 8 dereferenceable(8) %edge)
  %2 = load ptr, ptr %_M_finish.i.i, align 8
  %incdec.ptr.i.i = getelementptr inbounds nuw i8, ptr %2, i64 8
  store ptr %incdec.ptr.i.i, ptr %_M_finish.i.i, align 8
  br label %_ZNSt6vectorIN7msdfgen10EdgeHolderESaIS1_EE9push_backEOS1_.exit

if.else.i.i:                                      ; preds = %entry
  tail call void @_ZNSt6vectorIN7msdfgen10EdgeHolderESaIS1_EE17_M_realloc_insertIJS1_EEEvN9__gnu_cxx17__normal_iteratorIPS1_S3_EEDpOT_(ptr noundef nonnull align 8 dereferenceable(24) %this, ptr %0, ptr noundef nonnull align 8 dereferenceable(8) %edge)
  br label %_ZNSt6vectorIN7msdfgen10EdgeHolderESaIS1_EE9push_backEOS1_.exit

_ZNSt6vectorIN7msdfgen10EdgeHolderESaIS1_EE9push_backEOS1_.exit: ; preds = %if.then.i.i, %if.else.i.i
  ret void
}